target datalayout = "e-m:e-p270:32:32-p271:32:32-p272:64:64-i64:64-i128:128-f80:128-n8:16:32:64-S128"
target triple = "x86_64-pc-linux-gnu"

%"class.icu_77::MaybeStackArray" = type <{ ptr, i32, i8, [40 x i8], [3 x i8] }>
%"class.icu_77::StringPiece" = type <{ ptr, i32, [4 x i8] }>
%"class.icu_77::BytesTrieElement" = type { i32, i32 }
%"class.icu_77::CharString" = type { %"class.icu_77::MaybeStackArray", i32, [4 x i8] }

; Function Attrs: mustprogress nounwind uwtable
define linkonce_odr noundef ptr @_ZNK6icu_7711StringPiece4dataEv(ptr noundef nonnull align 8 dereferenceable(12) %0) #0 comdat align 2 {
  %2 = alloca ptr, align 8
  store ptr %0, ptr %2, align 8, !tbaa !30
  %3 = load ptr, ptr %2, align 8
  %4 = getelementptr inbounds nuw %"class.icu_77::StringPiece", ptr %3, i32 0, i32 0
  %5 = load ptr, ptr %4, align 8, !tbaa !36
  ret ptr %5
}

; Function Attrs: mustprogress uwtable
define linkonce_odr noundef nonnull align 8 dereferenceable(60) ptr @_ZN6icu_7710CharString6appendENS_11StringPieceER10UErrorCode(ptr noundef nonnull align 8 dereferenceable(60) %0, ptr %1, i32 %2, ptr noundef nonnull align 4 dereferenceable(4) %3) #1 comdat align 2 {
  %5 = alloca %"class.icu_77::StringPiece", align 8
  %6 = alloca ptr, align 8
  %7 = alloca ptr, align 8
  %8 = getelementptr inbounds nuw { ptr, i32 }, ptr %5, i32 0, i32 0
  store ptr %1, ptr %8, align 8
  %9 = getelementptr inbounds nuw { ptr, i32 }, ptr %5, i32 0, i32 1
  store i32 %2, ptr %9, align 8
  store ptr %0, ptr %6, align 8, !tbaa !25
  store ptr %3, ptr %7, align 8, !tbaa !22
  %10 = load ptr, ptr %6, align 8
  %11 = call noundef ptr @_ZNK6icu_7711StringPiece4dataEv(ptr noundef nonnull align 8 dereferenceable(12) %5)
  %12 = call noundef i32 @_ZNK6icu_7711StringPiece6lengthEv(ptr noundef nonnull align 8 dereferenceable(12) %5)
  %13 = load ptr, ptr %7, align 8, !tbaa !22
  %14 = call noundef nonnull align 8 dereferenceable(60) ptr @_ZN6icu_7710CharString6appendEPKciR10UErrorCode(ptr noundef nonnull align 8 dereferenceable(60) %10, ptr noundef %11, i32 noundef %12, ptr noundef nonnull align 4 dereferenceable(4) %13)
  ret ptr %14
}

; Function Attrs: mustprogress nounwind uwtable
define linkonce_odr noundef i32 @_ZNK6icu_7710CharString6lengthEv(ptr noundef nonnull align 8 dereferenceable(60) %0) #0 comdat align 2 {
  %2 = alloca ptr, align 8
  store ptr %0, ptr %2, align 8, !tbaa !25
  %3 = load ptr, ptr %2, align 8
  %4 = getelementptr inbounds nuw %"class.icu_77::CharString", ptr %3, i32 0, i32 1
  %5 = load i32, ptr %4, align 8, !tbaa !34
  ret i32 %5
}

; Function Attrs: mustprogress nounwind uwtable
define linkonce_odr noundef i32 @_ZNK6icu_7711StringPiece6lengthEv(ptr noundef nonnull align 8 dereferenceable(12) %0) #0 comdat align 2 {
  %2 = alloca ptr, align 8
  store ptr %0, ptr %2, align 8, !tbaa !30
  %3 = load ptr, ptr %2, align 8
  %4 = getelementptr inbounds nuw %"class.icu_77::StringPiece", ptr %3, i32 0, i32 1
  %5 = load i32, ptr %4, align 8, !tbaa !32
  ret i32 %5
}

; Function Attrs: inlinehint mustprogress nounwind uwtable
define internal noundef signext i8 @_ZL9U_FAILURE10UErrorCode(i32 noundef %0) #2 {
  %2 = alloca i32, align 4
  store i32 %0, ptr %2, align 4, !tbaa !15
  %3 = load i32, ptr %2, align 4, !tbaa !15
  %4 = icmp sgt i32 %3, 0
  %5 = zext i1 %4 to i8
  ret i8 %5
}

; Function Attrs: mustprogress uwtable
define void @_ZN6icu_7716BytesTrieElement5setToENS_11StringPieceEiRNS_10CharStringER10UErrorCode(ptr noundef nonnull align 4 dereferenceable(8) %0, ptr %1, i32 %2, i32 noundef %3, ptr noundef nonnull align 8 dereferenceable(60) %4, ptr noundef nonnull align 4 dereferenceable(4) %5) #1 align 2 {
  %7 = alloca %"class.icu_77::StringPiece", align 8
  %8 = alloca ptr, align 8
  %9 = alloca i32, align 4
  %10 = alloca ptr, align 8
  %11 = alloca ptr, align 8
  %12 = alloca i32, align 4
  %13 = alloca i32, align 4
  %14 = alloca i32, align 4
  %15 = alloca %"class.icu_77::StringPiece", align 8
  %16 = getelementptr inbounds nuw { ptr, i32 }, ptr %7, i32 0, i32 0
  store ptr %1, ptr %16, align 8
  %17 = getelementptr inbounds nuw { ptr, i32 }, ptr %7, i32 0, i32 1
  store i32 %2, ptr %17, align 8
  store ptr %0, ptr %8, align 8, !tbaa !23
  store i32 %3, ptr %9, align 4, !tbaa !14
  store ptr %4, ptr %10, align 8, !tbaa !25
  store ptr %5, ptr %11, align 8, !tbaa !22
  %18 = load ptr, ptr %8, align 8
  %19 = load ptr, ptr %11, align 8, !tbaa !22
  %20 = load i32, ptr %19, align 4, !tbaa !15
  %21 = call noundef signext i8 @_ZL9U_FAILURE10UErrorCode(i32 noundef %20)
  %22 = icmp ne i8 %21, 0
  br i1 %22, label %23, label %24

23:                                               ; preds = %6
  br label %63

24:                                               ; preds = %6
  call void @llvm.lifetime.start.p0(i64 4, ptr %12) #12
  %25 = call noundef i32 @_ZNK6icu_7711StringPiece6lengthEv(ptr noundef nonnull align 8 dereferenceable(12) %7)
  store i32 %25, ptr %12, align 4, !tbaa !14
  %26 = load i32, ptr %12, align 4, !tbaa !14
  %27 = icmp sgt i32 %26, 65535
  br i1 %27, label %28, label %30

28:                                               ; preds = %24
  %29 = load ptr, ptr %11, align 8, !tbaa !22
  store i32 8, ptr %29, align 4, !tbaa !15
  store i32 1, ptr %13, align 4
  br label %61

30:                                               ; preds = %24
  call void @llvm.lifetime.start.p0(i64 4, ptr %14) #12
  %31 = load ptr, ptr %10, align 8, !tbaa !25
  %32 = call noundef i32 @_ZNK6icu_7710CharString6lengthEv(ptr noundef nonnull align 8 dereferenceable(60) %31)
  store i32 %32, ptr %14, align 4, !tbaa !14
  %33 = load i32, ptr %12, align 4, !tbaa !14
  %34 = icmp sgt i32 %33, 255
  br i1 %34, label %35, label %44

35:                                               ; preds = %30
  %36 = load i32, ptr %14, align 4, !tbaa !14
  %37 = xor i32 %36, -1
  store i32 %37, ptr %14, align 4, !tbaa !14
  %38 = load ptr, ptr %10, align 8, !tbaa !25
  %39 = load i32, ptr %12, align 4, !tbaa !14
  %40 = ashr i32 %39, 8
  %41 = trunc i32 %40 to i8
  %42 = load ptr, ptr %11, align 8, !tbaa !22
  %43 = call noundef nonnull align 8 dereferenceable(60) ptr @_ZN6icu_7710CharString6appendEcR10UErrorCode(ptr noundef nonnull align 8 dereferenceable(60) %38, i8 noundef signext %41, ptr noundef nonnull align 4 dereferenceable(4) %42)
  br label %44

44:                                               ; preds = %35, %30
  %45 = load ptr, ptr %10, align 8, !tbaa !25
  %46 = load i32, ptr %12, align 4, !tbaa !14
  %47 = trunc i32 %46 to i8
  %48 = load ptr, ptr %11, align 8, !tbaa !22
  %49 = call noundef nonnull align 8 dereferenceable(60) ptr @_ZN6icu_7710CharString6appendEcR10UErrorCode(ptr noundef nonnull align 8 dereferenceable(60) %45, i8 noundef signext %47, ptr noundef nonnull align 4 dereferenceable(4) %48)
  %50 = load i32, ptr %14, align 4, !tbaa !14
  %51 = getelementptr inbounds nuw %"class.icu_77::BytesTrieElement", ptr %18, i32 0, i32 0
  store i32 %50, ptr %51, align 4, !tbaa !27
  %52 = load i32, ptr %9, align 4, !tbaa !14
  %53 = getelementptr inbounds nuw %"class.icu_77::BytesTrieElement", ptr %18, i32 0, i32 1
  store i32 %52, ptr %53, align 4, !tbaa !29
  %54 = load ptr, ptr %10, align 8, !tbaa !25
  call void @llvm.memcpy.p0.p0.i64(ptr align 8 %15, ptr align 8 %7, i64 16, i1 false)
  %55 = load ptr, ptr %11, align 8, !tbaa !22
  %56 = getelementptr inbounds nuw { ptr, i32 }, ptr %15, i32 0, i32 0
  %57 = load ptr, ptr %56, align 8
  %58 = getelementptr inbounds nuw { ptr, i32 }, ptr %15, i32 0, i32 1
  %59 = load i32, ptr %58, align 8
  %60 = call noundef nonnull align 8 dereferenceable(60) ptr @_ZN6icu_7710CharString6appendENS_11StringPieceER10UErrorCode(ptr noundef nonnull align 8 dereferenceable(60) %54, ptr %57, i32 %59, ptr noundef nonnull align 4 dereferenceable(4) %55)
  call void @llvm.lifetime.end.p0(i64 4, ptr %14) #12
  store i32 0, ptr %13, align 4
  br label %61

61:                                               ; preds = %44, %28
  call void @llvm.lifetime.end.p0(i64 4, ptr %12) #12
  %62 = load i32, ptr %13, align 4
  switch i32 %62, label %64 [
    i32 0, label %63
    i32 1, label %63
  ]

63:                                               ; preds = %23, %61, %61
  ret void

64:                                               ; preds = %61
  unreachable
}