; Function Attrs: mustprogress uwtable
define void @_ZN6icu_7716BytesTrieElement5setToENS_11StringPieceEiRNS_10CharStringER10UErrorCode(ptr noundef nonnull writeonly align 4 captures(none) dereferenceable(8) %0, ptr %1, i32 %2, i32 noundef %3, ptr noundef nonnull align 8 dereferenceable(60) %4, ptr noundef nonnull align 4 dereferenceable(4) %5) local_unnamed_addr #1 align 2 {
  %7 = load i32, ptr %5, align 4, !tbaa !13
  %8 = icmp slt i32 %7, 1
  br i1 %8, label %9, label %26

9:                                                ; preds = %6
  %10 = icmp sgt i32 %2, 65535
  br i1 %10, label %11, label %12

11:                                               ; preds = %9
  store i32 8, ptr %5, align 4, !tbaa !13
  br label %26

12:                                               ; preds = %9
  %13 = getelementptr inbounds nuw i8, ptr %4, i64 56
  %14 = load i32, ptr %13, align 8, !tbaa !15
  %15 = icmp sgt i32 %2, 255
  br i1 %15, label %16, label %21

16:                                               ; preds = %12
  %17 = xor i32 %14, -1
  %18 = lshr i32 %2, 8
  %19 = trunc i32 %18 to i8
  %20 = tail call noundef nonnull align 8 dereferenceable(60) ptr @_ZN6icu_7710CharString6appendEcR10UErrorCode(ptr noundef nonnull align 8 dereferenceable(60) %4, i8 noundef signext %19, ptr noundef nonnull align 4 dereferenceable(4) %5)
  br label %21

21:                                               ; preds = %16, %12
  %.0 = phi i32 [ %17, %16 ], [ %14, %12 ]
  %22 = trunc i32 %2 to i8
  %23 = tail call noundef nonnull align 8 dereferenceable(60) ptr @_ZN6icu_7710CharString6appendEcR10UErrorCode(ptr noundef nonnull align 8 dereferenceable(60) %4, i8 noundef signext %22, ptr noundef nonnull align 4 dereferenceable(4) %5)
  store i32 %.0, ptr %0, align 4, !tbaa !17
  %24 = getelementptr inbounds nuw i8, ptr %0, i64 4
  store i32 %3, ptr %24, align 4, !tbaa !19
  %25 = tail call noundef nonnull align 8 dereferenceable(60) ptr @_ZN6icu_7710CharString6appendEPKciR10UErrorCode(ptr noundef nonnull align 8 dereferenceable(60) %4, ptr noundef %1, i32 noundef %2, ptr noundef nonnull align 4 dereferenceable(4) %5)
  br label %26

26:                                               ; preds = %11, %21, %6
  ret void
}